target datalayout = "e-m:e-p270:32:32-p271:32:32-p272:64:64-i64:64-i128:128-f80:128-n8:16:32:64-S128"
target triple = "x86_64-pc-linux-gnu"

%struct.dynbuf = type { ptr, i64, i64, i64 }

; Function Attrs: nounwind uwtable
define dso_local void @Curl_dyn_reset(ptr noundef %0) #0 {
  %2 = alloca ptr, align 8
  store ptr %0, ptr %2, align 8, !tbaa !4
  br label %3

3:                                                ; preds = %1
  br label %4

4:                                                ; preds = %3
  br label %5

5:                                                ; preds = %4
  br label %6

6:                                                ; preds = %5
  br label %7

7:                                                ; preds = %6
  br label %8

8:                                                ; preds = %7
  %9 = load ptr, ptr %2, align 8, !tbaa !4
  %10 = getelementptr inbounds nuw %struct.dynbuf, ptr %9, i32 0, i32 1
  %11 = load i64, ptr %10, align 8, !tbaa !14
  %12 = icmp ne i64 %11, 0
  br i1 %12, label %13, label %18

13:                                               ; preds = %8
  %14 = load ptr, ptr %2, align 8, !tbaa !4
  %15 = getelementptr inbounds nuw %struct.dynbuf, ptr %14, i32 0, i32 0
  %16 = load ptr, ptr %15, align 8, !tbaa !11
  %17 = getelementptr inbounds i8, ptr %16, i64 0
  store i8 0, ptr %17, align 1, !tbaa !18
  br label %18

18:                                               ; preds = %13, %8
  %19 = load ptr, ptr %2, align 8, !tbaa !4
  %20 = getelementptr inbounds nuw %struct.dynbuf, ptr %19, i32 0, i32 1
  store i64 0, ptr %20, align 8, !tbaa !14
  ret void
}

; Function Attrs: nounwind uwtable
define dso_local i32 @Curl_dyn_tail(ptr noundef %0, i64 noundef %1) #0 {
  %3 = alloca i32, align 4
  %4 = alloca ptr, align 8
  %5 = alloca i64, align 8
  store ptr %0, ptr %4, align 8, !tbaa !4
  store i64 %1, ptr %5, align 8, !tbaa !9
  br label %6

6:                                                ; preds = %2
  br label %7

7:                                                ; preds = %6
  br label %8

8:                                                ; preds = %7
  br label %9

9:                                                ; preds = %8
  br label %10

10:                                               ; preds = %9
  br label %11

11:                                               ; preds = %10
  %12 = load i64, ptr %5, align 8, !tbaa !9
  %13 = load ptr, ptr %4, align 8, !tbaa !4
  %14 = getelementptr inbounds nuw %struct.dynbuf, ptr %13, i32 0, i32 1
  %15 = load i64, ptr %14, align 8, !tbaa !14
  %16 = icmp ugt i64 %12, %15
  br i1 %16, label %17, label %18

17:                                               ; preds = %11
  store i32 43, ptr %3, align 4
  br label %58

18:                                               ; preds = %11
  %19 = load i64, ptr %5, align 8, !tbaa !9
  %20 = load ptr, ptr %4, align 8, !tbaa !4
  %21 = getelementptr inbounds nuw %struct.dynbuf, ptr %20, i32 0, i32 1
  %22 = load i64, ptr %21, align 8, !tbaa !14
  %23 = icmp eq i64 %19, %22
  br i1 %23, label %24, label %25

24:                                               ; preds = %18
  store i32 0, ptr %3, align 4
  br label %58

25:                                               ; preds = %18
  %26 = load i64, ptr %5, align 8, !tbaa !9
  %27 = icmp ne i64 %26, 0
  br i1 %27, label %30, label %28

28:                                               ; preds = %25
  %29 = load ptr, ptr %4, align 8, !tbaa !4
  call void @Curl_dyn_reset(ptr noundef %29)
  br label %55

30:                                               ; preds = %25
  %31 = load ptr, ptr %4, align 8, !tbaa !4
  %32 = getelementptr inbounds nuw %struct.dynbuf, ptr %31, i32 0, i32 0
  %33 = load ptr, ptr %32, align 8, !tbaa !11
  %34 = getelementptr inbounds i8, ptr %33, i64 0
  %35 = load ptr, ptr %4, align 8, !tbaa !4
  %36 = getelementptr inbounds nuw %struct.dynbuf, ptr %35, i32 0, i32 0
  %37 = load ptr, ptr %36, align 8, !tbaa !11
  %38 = load ptr, ptr %4, align 8, !tbaa !4
  %39 = getelementptr inbounds nuw %struct.dynbuf, ptr %38, i32 0, i32 1
  %40 = load i64, ptr %39, align 8, !tbaa !14
  %41 = load i64, ptr %5, align 8, !tbaa !9
  %42 = sub i64 %40, %41
  %43 = getelementptr inbounds nuw i8, ptr %37, i64 %42
  %44 = load i64, ptr %5, align 8, !tbaa !9
  call void @llvm.memmove.p0.p0.i64(ptr align 1 %34, ptr align 1 %43, i64 %44, i1 false)
  %45 = load i64, ptr %5, align 8, !tbaa !9
  %46 = load ptr, ptr %4, align 8, !tbaa !4
  %47 = getelementptr inbounds nuw %struct.dynbuf, ptr %46, i32 0, i32 1
  store i64 %45, ptr %47, align 8, !tbaa !14
  %48 = load ptr, ptr %4, align 8, !tbaa !4
  %49 = getelementptr inbounds nuw %struct.dynbuf, ptr %48, i32 0, i32 0
  %50 = load ptr, ptr %49, align 8, !tbaa !11
  %51 = load ptr, ptr %4, align 8, !tbaa !4
  %52 = getelementptr inbounds nuw %struct.dynbuf, ptr %51, i32 0, i32 1
  %53 = load i64, ptr %52, align 8, !tbaa !14
  %54 = getelementptr inbounds nuw i8, ptr %50, i64 %53
  store i8 0, ptr %54, align 1, !tbaa !18
  br label %55

55:                                               ; preds = %30, %28
  br label %56

56:                                               ; preds = %55
  br label %57

57:                                               ; preds = %56
  store i32 0, ptr %3, align 4
  br label %58

58:                                               ; preds = %57, %24, %17
  %59 = load i32, ptr %3, align 4
  ret i32 %59
}